; Function Attrs: nounwind uwtable
define ptr @WebPINewYUVA(ptr noundef %0, i64 noundef %1, i32 noundef %2, ptr noundef %3, i64 noundef %4, i32 noundef %5, ptr noundef %6, i64 noundef %7, i32 noundef %8, ptr noundef %9, i64 noundef %10, i32 noundef %11) local_unnamed_addr #0 {
  %.not = icmp ne ptr %0, null
  %13 = zext i1 %.not to i32
  br i1 %.not, label %14, label %29

14:                                               ; preds = %12
  %15 = icmp eq ptr %3, null
  %16 = icmp eq ptr %6, null
  %or.cond = or i1 %15, %16
  br i1 %or.cond, label %47, label %17

17:                                               ; preds = %14
  %18 = icmp eq i64 %1, 0
  %19 = icmp eq i64 %4, 0
  %or.cond3 = or i1 %18, %19
  %20 = icmp eq i64 %7, 0
  %or.cond5 = or i1 %or.cond3, %20
  br i1 %or.cond5, label %47, label %21

21:                                               ; preds = %17
  %22 = icmp eq i32 %2, 0
  %23 = icmp eq i32 %5, 0
  %or.cond7 = or i1 %22, %23
  %24 = icmp eq i32 %8, 0
  %or.cond9 = or i1 %or.cond7, %24
  br i1 %or.cond9, label %47, label %25

25:                                               ; preds = %21
  %.not76 = icmp eq ptr %9, null
  br i1 %.not76, label %29, label %26

26:                                               ; preds = %25
  %27 = icmp eq i64 %10, 0
  %28 = icmp eq i32 %11, 0
  %or.cond11 = or i1 %27, %28
  br i1 %or.cond11, label %47, label %29

29:                                               ; preds = %25, %26, %12
  %.066 = phi i32 [ 0, %12 ], [ %2, %26 ], [ %2, %25 ]
  %.065 = phi ptr [ null, %12 ], [ %3, %26 ], [ %3, %25 ]
  %.064 = phi i64 [ 0, %12 ], [ %4, %26 ], [ %4, %25 ]
  %.063 = phi i32 [ 0, %12 ], [ %5, %26 ], [ %5, %25 ]
  %.062 = phi ptr [ null, %12 ], [ %6, %26 ], [ %6, %25 ]
  %.061 = phi i64 [ 0, %12 ], [ %7, %26 ], [ %7, %25 ]
  %.060 = phi i32 [ 0, %12 ], [ %8, %26 ], [ %8, %25 ]
  %.059 = phi ptr [ null, %12 ], [ %9, %26 ], [ null, %25 ]
  %.058 = phi i64 [ 0, %12 ], [ %10, %26 ], [ %10, %25 ]
  %.057 = phi i32 [ 0, %12 ], [ %11, %26 ], [ %11, %25 ]
  %.056 = phi i64 [ 0, %12 ], [ %1, %26 ], [ %1, %25 ]
  %.0 = phi i32 [ 12, %12 ], [ 12, %26 ], [ 11, %25 ]
  %30 = tail call fastcc ptr @NewDecoder(ptr noundef null, ptr noundef null)
  %31 = icmp eq ptr %30, null
  br i1 %31, label %47, label %32

32:                                               ; preds = %29
  %33 = getelementptr inbounds nuw i8, ptr %30, i64 352
  store i32 %.0, ptr %33, align 8, !tbaa !29
  %34 = getelementptr inbounds nuw i8, ptr %30, i64 364
  store i32 %13, ptr %34, align 4, !tbaa !30
  %35 = getelementptr inbounds nuw i8, ptr %30, i64 368
  store ptr %0, ptr %35, align 8, !tbaa !31
  %36 = getelementptr inbounds nuw i8, ptr %30, i64 400
  store i32 %.066, ptr %36, align 8, !tbaa !31
  %37 = getelementptr inbounds nuw i8, ptr %30, i64 416
  store i64 %.056, ptr %37, align 8, !tbaa !31
  %38 = getelementptr inbounds nuw i8, ptr %30, i64 376
  store ptr %.065, ptr %38, align 8, !tbaa !31
  %39 = getelementptr inbounds nuw i8, ptr %30, i64 404
  store i32 %.063, ptr %39, align 4, !tbaa !31
  %40 = getelementptr inbounds nuw i8, ptr %30, i64 424
  store i64 %.064, ptr %40, align 8, !tbaa !31
  %41 = getelementptr inbounds nuw i8, ptr %30, i64 384
  store ptr %.062, ptr %41, align 8, !tbaa !31
  %42 = getelementptr inbounds nuw i8, ptr %30, i64 408
  store i32 %.060, ptr %42, align 8, !tbaa !31
  %43 = getelementptr inbounds nuw i8, ptr %30, i64 432
  store i64 %.061, ptr %43, align 8, !tbaa !31
  %44 = getelementptr inbounds nuw i8, ptr %30, i64 392
  store ptr %.059, ptr %44, align 8, !tbaa !31
  %45 = getelementptr inbounds nuw i8, ptr %30, i64 412
  store i32 %.057, ptr %45, align 4, !tbaa !31
  %46 = getelementptr inbounds nuw i8, ptr %30, i64 440
  store i64 %.058, ptr %46, align 8, !tbaa !31
  br label %47

47:                                               ; preds = %29, %26, %21, %17, %14, %32
  %.055 = phi ptr [ %30, %32 ], [ null, %14 ], [ null, %17 ], [ null, %21 ], [ null, %26 ], [ null, %29 ]
  ret ptr %.055
}